ccopy_reg
_reconstructor
p1
(cxmppd.modules.db_fake
DictWatch
p2
c__builtin__
dict
p3
(dp4
S'127.0.0.1'
p5
g1
(g2
g3
(dp6
S'acc'
p7
g1
(g2
g3
(dp8
S'name'
p9
S'ACC'
p10
sS'groups'
p11
g1
(g2
g3
(dtRp12
sS'roster'
p13
g1
(g2
g3
(dtRp14
sS'anon_allow'
p15
S'yes'
p16
sS'password'
p17
S'XuISDyCr'
p18
sS'storage'
p19
g1
(g2
g3
(dtRp20
stRp21
sVbidder3
p22
g1
(g2
g3
(dp23
g9
Vbidder3
p24
sg11
g1
(g2
g3
(dtRp25
sg13
g1
(g2
g3
(dp26
Vams.127.0.0.1
p27
(dp28
S'state'
p29
S''
sS'subscription'
p30
S'to'
p31
sstRp32
sg15
g16
sg17
Vsecret
p33
sg19
g1
(g2
g3
(dtRp34
stRp35
sVauctioner
p36
g1
(g2
g3
(dp37
g9
Vauctioner
p38
sg11
g1
(g2
g3
(dtRp39
sg13
g1
(g2
g3
(dp40
Vams.127.0.0.1
p41
(dp42
g29
S''
sg30
g31
sstRp43
sg15
g16
sg17
Vsecret
p44
sg19
g1
(g2
g3
(dtRp45
stRp46
sS'df'
p47
g1
(g2
g3
(dp48
g9
S'DF'
p49
sg11
g1
(g2
g3
(dtRp50
sg13
g1
(g2
g3
(dtRp51
sg15
g16
sg17
S'FyNAyBNx'
p52
sg19
g1
(g2
g3
(dtRp53
stRp54
sVbidder1
p55
g1
(g2
g3
(dp56
g9
Vbidder1
p57
sg11
g1
(g2
g3
(dtRp58
sg13
g1
(g2
g3
(dp59
Vams.127.0.0.1
p60
(dp61
g29
S''
sg30
g31
sstRp62
sg15
g16
sg17
Vsecret
p63
sg19
g1
(g2
g3
(dtRp64
stRp65
sVbidder0
p66
g1
(g2
g3
(dp67
g9
Vbidder0
p68
sg11
g1
(g2
g3
(dtRp69
sg13
g1
(g2
g3
(dp70
Vams.127.0.0.1
p71
(dp72
g29
S''
sg30
g31
sstRp73
sg15
g16
sg17
Vsecret
p74
sg19
g1
(g2
g3
(dtRp75
stRp76
sS'ams'
p77
g1
(g2
g3
(dp78
g9
S'AMS'
p79
sg11
g1
(g2
g3
(dtRp80
sg13
g1
(g2
g3
(dp81
S'bidder0@127.0.0.1'
p82
(dp83
g29
S''
sg30
S'from'
p84
ssS'bidder1@127.0.0.1'
p85
(dp86
g29
S''
sg30
g84
ssS'bidder2@127.0.0.1'
p87
(dp88
g29
S''
sg30
g84
ssS'bidder3@127.0.0.1'
p89
(dp90
g29
S''
sg30
g84
ssS'bidder4@127.0.0.1'
p91
(dp92
g29
S''
sg30
g84
ssS'auctioner@127.0.0.1'
p93
(dp94
g29
S''
sg30
g84
sstRp95
sg15
g16
sg17
S'EhSbWBnY'
p96
sg19
g1
(g2
g3
(dtRp97
stRp98
sVbidder2
p99
g1
(g2
g3
(dp100
g9
Vbidder2
p101
sg11
g1
(g2
g3
(dtRp102
sg13
g1
(g2
g3
(dp103
Vams.127.0.0.1
p104
(dp105
g29
S''
sg30
g31
sstRp106
sg15
g16
sg17
Vsecret
p107
sg19
g1
(g2
g3
(dtRp108
stRp109
sVbidder4
p110
g1
(g2
g3
(dp111
g9
Vbidder4
p112
sg11
g1
(g2
g3
(dtRp113
sg13
g1
(g2
g3
(dp114
Vams.127.0.0.1
p115
(dp116
g29
S''
sg30
g31
sstRp117
sg15
g16
sg17
Vsecret
p118
sg19
g1
(g2
g3
(dtRp119
stRp120
sS'__ir__'
p121
(dp122
g15
g16
sg17
S'test'
p123
sg19
(dp124
S'karma'
p125
(dp126
S'down'
p127
I307200
sS'tot_up'
p128
I0
sS'tot_down'
p129
I0
sS'up'
p130
I307200307200307200
sS'last_time'
p131
F0
sssg11
(dp132
sg13
(dp133
sstRp134
stRp135
.